target datalayout = "e-m:e-p270:32:32-p271:32:32-p272:64:64-i64:64-i128:128-f80:128-n8:16:32:64-S128"
target triple = "x86_64-pc-linux-gnu"

%struct.BEValue = type { i8, i32, ptr, ptr, ptr }
%struct.Expr_ = type { ptr, %union.SourceSpan, i16, %union.anon.29 }
%union.SourceSpan = type { i64 }
%union.anon.29 = type { %struct.ExprAnySwitch }
%struct.ExprAnySwitch = type { i8, %union.anon.31 }
%union.anon.31 = type { %struct.anon.32 }
%struct.anon.32 = type { ptr, %union.SourceSpan, ptr }
%struct.ExprCall = type { %union.anon.33, i32, i16, ptr, %union.anon.34 }
%union.anon.33 = type { i32 }
%union.anon.34 = type { ptr }
%struct.VHeader_ = type { i32, i32, [0 x i8] }
%struct.Type_ = type { i32, ptr, ptr, ptr, %union.anon.101, ptr, ptr, %union.anon.103 }
%union.anon.101 = type { ptr }
%union.anon.103 = type { %struct.TypeFunction }
%struct.TypeFunction = type { ptr, ptr, ptr }
%struct.Decl_ = type { ptr, ptr, %union.SourceSpan, i64, %union.anon, i32, %union.anon.0, i64, ptr, ptr, ptr, %union.anon.1 }
%union.anon = type { ptr }
%union.anon.0 = type { i16 }
%union.anon.1 = type { %struct.FuncDecl }
%struct.FuncDecl = type { i32, [4 x i8], %struct.Signature_, i32, i32, %union.anon.8 }
%struct.Signature_ = type <{ %struct.CalleeAttributes, i16, i8, i32, i32, [4 x i8], ptr }>
%struct.CalleeAttributes = type { i8 }
%union.anon.8 = type { %struct.anon.9 }
%struct.anon.9 = type { i16, %union.anon.10 }
%union.anon.10 = type { ptr }
%struct.anon.2 = type { ptr, ptr, %union.anon.3 }
%union.anon.3 = type { %struct.BitStructDecl }
%struct.BitStructDecl = type { ptr, ptr, i8 }
%struct.TypeInfo_ = type { i16, ptr, %union.SourceSpan, %union.anon.56 }
%union.anon.56 = type { %struct.anon.57 }
%struct.anon.57 = type { ptr, ptr }

@.str = private unnamed_addr constant [36 x i8] c"FATAL ERROR %s -> in %s @ in %s:%d \00", align 1
@.str.2 = private unnamed_addr constant [122 x i8] c"generated/home/dtcxzyw/WorkSpace/Projects/compilers/llvm-opt-benchmark/bench/c3c/c3c/src/compiler/llvm_codegen_builtins.c\00", align 1
@.str.3 = private unnamed_addr constant [22 x i8] c"Should be unreachable\00", align 1
@__func__.llvm_intrinsic_by_type = private unnamed_addr constant [23 x i8] c"llvm_intrinsic_by_type\00", align 1
@__func__.type_flatten = private unnamed_addr constant [13 x i8] c"type_flatten\00", align 1
@.str.4 = private unnamed_addr constant [118 x i8] c"generated/home/dtcxzyw/WorkSpace/Projects/compilers/llvm-opt-benchmark/bench/c3c/c3c/src/compiler/compiler_internal.h\00", align 1

; Function Attrs: nounwind uwtable
define internal ptr @type_flatten(ptr noundef %0) #0 {
  %2 = alloca ptr, align 8
  store ptr %0, ptr %2, align 8
  br label %3

3:                                                ; preds = %28, %1
  %4 = load ptr, ptr %2, align 8
  %5 = getelementptr inbounds %struct.Type_, ptr %4, i32 0, i32 1
  %6 = load ptr, ptr %5, align 8
  store ptr %6, ptr %2, align 8
  %7 = load ptr, ptr %2, align 8
  %8 = getelementptr inbounds %struct.Type_, ptr %7, i32 0, i32 0
  %9 = load i32, ptr %8, align 8
  switch i32 %9, label %26 [
    i32 32, label %10
    i32 40, label %19
    i32 31, label %23
  ]

10:                                               ; preds = %3
  %11 = load ptr, ptr %2, align 8
  %12 = getelementptr inbounds %struct.Type_, ptr %11, i32 0, i32 7
  %13 = load ptr, ptr %12, align 8
  %14 = getelementptr inbounds %struct.Decl_, ptr %13, i32 0, i32 11
  %15 = getelementptr inbounds %struct.anon.2, ptr %14, i32 0, i32 2
  %16 = load ptr, ptr %15, align 8
  %17 = getelementptr inbounds %struct.TypeInfo_, ptr %16, i32 0, i32 1
  %18 = load ptr, ptr %17, align 8
  store ptr %18, ptr %2, align 8
  br label %28

19:                                               ; preds = %3
  %20 = load ptr, ptr %2, align 8
  %21 = getelementptr inbounds %struct.Type_, ptr %20, i32 0, i32 7
  %22 = load ptr, ptr %21, align 8
  store ptr %22, ptr %2, align 8
  br label %28

23:                                               ; preds = %3
  br label %24

24:                                               ; preds = %23
  call void (ptr, ...) @error_exit(ptr noundef @.str, ptr noundef @.str.3, ptr noundef @__func__.type_flatten, ptr noundef @.str.4, i32 noundef 2984) #9
  unreachable

25:                                               ; No predecessors!
  br label %26

26:                                               ; preds = %25, %3
  %27 = load ptr, ptr %2, align 8
  ret ptr %27

28:                                               ; preds = %19, %10
  br label %3
}

; Function Attrs: nounwind uwtable
define dso_local void @llvm_emit_3_variant_builtin(ptr noundef %0, ptr noundef %1, ptr noundef %2, i32 noundef %3, i32 noundef %4, i32 noundef %5) #0 {
  %7 = alloca i32, align 4
  %8 = alloca ptr, align 8
  %9 = alloca i32, align 4
  %10 = alloca i32, align 4
  %11 = alloca i32, align 4
  %12 = alloca i32, align 4
  %13 = alloca ptr, align 8
  %14 = alloca ptr, align 8
  %15 = alloca ptr, align 8
  %16 = alloca ptr, align 8
  %17 = alloca ptr, align 8
  %18 = alloca i32, align 4
  %19 = alloca %struct.BEValue, align 8
  %20 = alloca i32, align 4
  %21 = alloca ptr, align 8
  %22 = alloca ptr, align 8
  %23 = alloca ptr, align 8
  %24 = alloca i32, align 4
  %25 = alloca i32, align 4
  %26 = alloca i32, align 4
  %27 = alloca ptr, align 8
  %28 = alloca i32, align 4
  %29 = alloca [3 x ptr], align 16
  %30 = alloca i32, align 4
  %31 = alloca [1 x ptr], align 8
  %32 = alloca ptr, align 8
  store ptr %0, ptr %21, align 8
  store ptr %1, ptr %22, align 8
  store ptr %2, ptr %23, align 8
  store i32 %3, ptr %24, align 4
  store i32 %4, ptr %25, align 4
  store i32 %5, ptr %26, align 4
  %33 = load ptr, ptr %23, align 8
  %34 = getelementptr inbounds %struct.Expr_, ptr %33, i32 0, i32 3
  %35 = getelementptr inbounds %struct.ExprCall, ptr %34, i32 0, i32 3
  %36 = load ptr, ptr %35, align 8
  store ptr %36, ptr %27, align 8
  %37 = load ptr, ptr %27, align 8
  store ptr %37, ptr %13, align 8
  %38 = load ptr, ptr %13, align 8
  %39 = icmp ne ptr %38, null
  br i1 %39, label %41, label %40

40:                                               ; preds = %6
  store i32 0, ptr %12, align 4
  br label %46

41:                                               ; preds = %6
  %42 = load ptr, ptr %13, align 8
  store ptr %42, ptr %14, align 8
  %43 = load ptr, ptr %14, align 8
  %44 = getelementptr inbounds %struct.VHeader_, ptr %43, i64 -1
  %45 = load i32, ptr %44, align 4
  store i32 %45, ptr %12, align 4
  br label %46

46:                                               ; preds = %41, %40
  %47 = load i32, ptr %12, align 4
  store i32 %47, ptr %28, align 4
  %48 = load ptr, ptr %27, align 8
  %49 = getelementptr inbounds ptr, ptr %48, i64 0
  %50 = load ptr, ptr %49, align 8
  %51 = getelementptr inbounds %struct.Expr_, ptr %50, i32 0, i32 0
  %52 = load ptr, ptr %51, align 8
  %53 = load i32, ptr %24, align 4
  %54 = load i32, ptr %25, align 4
  %55 = load i32, ptr %26, align 4
  store ptr %52, ptr %8, align 8
  store i32 %53, ptr %9, align 4
  store i32 %54, ptr %10, align 4
  store i32 %55, ptr %11, align 4
  %56 = load ptr, ptr %8, align 8
  %57 = call ptr @type_flatten(ptr noundef %56)
  store ptr %57, ptr %8, align 8
  br label %58

58:                                               ; preds = %67, %46
  %59 = load ptr, ptr %8, align 8
  %60 = load i32, ptr %59, align 8
  switch i32 %60, label %71 [
    i32 3, label %61
    i32 4, label %61
    i32 5, label %61
    i32 6, label %61
    i32 7, label %61
    i32 2, label %63
    i32 8, label %63
    i32 9, label %63
    i32 10, label %63
    i32 11, label %63
    i32 12, label %63
    i32 14, label %65
    i32 13, label %65
    i32 15, label %65
    i32 16, label %65
    i32 17, label %65
    i32 37, label %67
  ]

61:                                               ; preds = %58, %58, %58, %58, %58
  %62 = load i32, ptr %9, align 4
  store i32 %62, ptr %7, align 4
  br label %72

63:                                               ; preds = %58, %58, %58, %58, %58, %58
  %64 = load i32, ptr %10, align 4
  store i32 %64, ptr %7, align 4
  br label %72

65:                                               ; preds = %58, %58, %58, %58, %58
  %66 = load i32, ptr %11, align 4
  store i32 %66, ptr %7, align 4
  br label %72

67:                                               ; preds = %58
  %68 = load ptr, ptr %8, align 8
  %69 = getelementptr inbounds %struct.Type_, ptr %68, i32 0, i32 7
  %70 = load ptr, ptr %69, align 8
  store ptr %70, ptr %8, align 8
  br label %58

71:                                               ; preds = %58
  call void (ptr, ...) @error_exit(ptr noundef @.str, ptr noundef @.str.3, ptr noundef @__func__.llvm_intrinsic_by_type, ptr noundef @.str.2, i32 noundef 349) #7
  unreachable

72:                                               ; preds = %65, %63, %61
  %73 = load i32, ptr %7, align 4
  store i32 %73, ptr %30, align 4
  %74 = load ptr, ptr %21, align 8
  %75 = load ptr, ptr %27, align 8
  %76 = getelementptr inbounds [3 x ptr], ptr %29, i64 0, i64 0
  %77 = load i32, ptr %28, align 4
  store ptr %74, ptr %15, align 8
  store ptr %75, ptr %16, align 8
  store ptr %76, ptr %17, align 8
  store i32 %77, ptr %18, align 4
  store i32 0, ptr %20, align 4
  br label %78

78:                                               ; preds = %82, %72
  %79 = load i32, ptr %20, align 4
  %80 = load i32, ptr %18, align 4
  %81 = icmp ult i32 %79, %80
  br i1 %81, label %82, label %98

82:                                               ; preds = %78
  %83 = load ptr, ptr %15, align 8
  %84 = load ptr, ptr %16, align 8
  %85 = load i32, ptr %20, align 4
  %86 = zext i32 %85 to i64
  %87 = getelementptr inbounds ptr, ptr %84, i64 %86
  %88 = load ptr, ptr %87, align 8
  call void @llvm_emit_expr(ptr noundef %83, ptr noundef %19, ptr noundef %88) #6
  %89 = load ptr, ptr %15, align 8
  call void @llvm_value_rvalue(ptr noundef %89, ptr noundef %19) #6
  %90 = getelementptr inbounds %struct.BEValue, ptr %19, i32 0, i32 3
  %91 = load ptr, ptr %90, align 8
  %92 = load ptr, ptr %17, align 8
  %93 = load i32, ptr %20, align 4
  %94 = zext i32 %93 to i64
  %95 = getelementptr inbounds ptr, ptr %92, i64 %94
  store ptr %91, ptr %95, align 8
  %96 = load i32, ptr %20, align 4
  %97 = add i32 %96, 1
  store i32 %97, ptr %20, align 4
  br label %78, !llvm.loop !12

98:                                               ; preds = %78
  %99 = getelementptr inbounds [1 x ptr], ptr %31, i64 0, i64 0
  %100 = getelementptr inbounds [3 x ptr], ptr %29, i64 0, i64 0
  %101 = load ptr, ptr %100, align 16
  %102 = call ptr @LLVMTypeOf(ptr noundef %101)
  store ptr %102, ptr %99, align 8
  %103 = load ptr, ptr %21, align 8
  %104 = load i32, ptr %30, align 4
  %105 = getelementptr inbounds [1 x ptr], ptr %31, i64 0, i64 0
  %106 = getelementptr inbounds [3 x ptr], ptr %29, i64 0, i64 0
  %107 = load i32, ptr %28, align 4
  %108 = call ptr @llvm_emit_call_intrinsic(ptr noundef %103, i32 noundef %104, ptr noundef %105, i32 noundef 1, ptr noundef %106, i32 noundef %107)
  store ptr %108, ptr %32, align 8
  %109 = load ptr, ptr %22, align 8
  %110 = load ptr, ptr %32, align 8
  %111 = load ptr, ptr %23, align 8
  %112 = getelementptr inbounds %struct.Expr_, ptr %111, i32 0, i32 0
  %113 = load ptr, ptr %112, align 8
  call void @llvm_value_set(ptr noundef %109, ptr noundef %110, ptr noundef %113)
  ret void
}