; Function Attrs: nounwind uwtable
define dso_local void @llvm_emit_3_variant_builtin(ptr noundef %0, ptr noundef %1, ptr nocapture noundef readonly %2, i32 noundef %3, i32 noundef %4, i32 noundef %5) local_unnamed_addr #0 {
  %7 = alloca %struct.BEValue, align 8
  %8 = alloca [3 x ptr], align 16
  %9 = alloca [1 x ptr], align 8
  %10 = getelementptr inbounds i8, ptr %2, i64 40
  %11 = load ptr, ptr %10, align 8
  %.not = icmp eq ptr %11, null
  br i1 %.not, label %15, label %12

12:                                               ; preds = %6
  %13 = getelementptr inbounds i8, ptr %11, i64 -8
  %14 = load i32, ptr %13, align 4
  br label %15

15:                                               ; preds = %6, %12
  %.035 = phi i32 [ %14, %12 ], [ 0, %6 ]
  %16 = load ptr, ptr %11, align 8
  br label %17

17:                                               ; preds = %.backedge, %15
  %.0.i.in = phi ptr [ %16, %15 ], [ %.0.i.in.be, %.backedge ]
  %.0.i = load ptr, ptr %.0.i.in, align 8
  %18 = getelementptr inbounds i8, ptr %.0.i, i64 8
  %19 = load ptr, ptr %18, align 8
  %20 = load i32, ptr %19, align 8
  switch i32 %20, label %type_flatten.exit [
    i32 32, label %21
    i32 40, label %27
    i32 31, label %29
  ]

21:                                               ; preds = %17
  %22 = getelementptr inbounds i8, ptr %19, i64 56
  %23 = load ptr, ptr %22, align 8
  %24 = getelementptr inbounds i8, ptr %23, i64 96
  %25 = load ptr, ptr %24, align 8
  %26 = getelementptr inbounds i8, ptr %25, i64 8
  br label %.backedge

27:                                               ; preds = %17
  %28 = getelementptr inbounds i8, ptr %19, i64 56
  br label %.backedge

.backedge:                                        ; preds = %27, %21
  %.0.i.in.be = phi ptr [ %28, %27 ], [ %26, %21 ]
  br label %17

29:                                               ; preds = %17
  tail call void (ptr, ...) @error_exit(ptr noundef nonnull @.str, ptr noundef nonnull @.str.3, ptr noundef nonnull @__func__.type_flatten, ptr noundef nonnull @.str.4, i32 noundef 2984) #9
  unreachable

type_flatten.exit:                                ; preds = %17, %31
  %30 = phi i32 [ %.pr, %31 ], [ %20, %17 ]
  %.034 = phi ptr [ %33, %31 ], [ %19, %17 ]
  switch i32 %30, label %34 [
    i32 3, label %.loopexit.loopexit
    i32 4, label %.loopexit.loopexit
    i32 5, label %.loopexit.loopexit
    i32 6, label %.loopexit.loopexit
    i32 7, label %.loopexit.loopexit
    i32 2, label %.loopexit.loopexit55
    i32 8, label %.loopexit.loopexit55
    i32 9, label %.loopexit.loopexit55
    i32 10, label %.loopexit.loopexit55
    i32 11, label %.loopexit.loopexit55
    i32 12, label %.loopexit.loopexit55
    i32 14, label %.loopexit
    i32 13, label %.loopexit
    i32 15, label %.loopexit
    i32 16, label %.loopexit
    i32 17, label %.loopexit
    i32 37, label %31
  ]

31:                                               ; preds = %type_flatten.exit
  %32 = getelementptr inbounds i8, ptr %.034, i64 56
  %33 = load ptr, ptr %32, align 8
  %.pr = load i32, ptr %33, align 8
  br label %type_flatten.exit

34:                                               ; preds = %type_flatten.exit
  tail call void (ptr, ...) @error_exit(ptr noundef nonnull @.str, ptr noundef nonnull @.str.3, ptr noundef nonnull @__func__.llvm_intrinsic_by_type, ptr noundef nonnull @.str.2, i32 noundef 349) #9
  unreachable

.loopexit.loopexit:                               ; preds = %type_flatten.exit, %type_flatten.exit, %type_flatten.exit, %type_flatten.exit, %type_flatten.exit
  br label %.loopexit

.loopexit.loopexit55:                             ; preds = %type_flatten.exit, %type_flatten.exit, %type_flatten.exit, %type_flatten.exit, %type_flatten.exit, %type_flatten.exit
  br label %.loopexit

.loopexit:                                        ; preds = %type_flatten.exit, %type_flatten.exit, %type_flatten.exit, %type_flatten.exit, %type_flatten.exit, %.loopexit.loopexit55, %.loopexit.loopexit
  %.0 = phi i32 [ %3, %.loopexit.loopexit ], [ %4, %.loopexit.loopexit55 ], [ %5, %type_flatten.exit ], [ %5, %type_flatten.exit ], [ %5, %type_flatten.exit ], [ %5, %type_flatten.exit ], [ %5, %type_flatten.exit ]
  %.not42 = icmp ne i32 %.035, 0
  tail call void @llvm.assume(i1 %.not42)
  %35 = getelementptr inbounds i8, ptr %7, i64 16
  %wide.trip.count = zext i32 %.035 to i64
  br label %36

36:                                               ; preds = %.loopexit, %36
  %indvars.iv = phi i64 [ 0, %.loopexit ], [ %indvars.iv.next, %36 ]
  %37 = getelementptr inbounds ptr, ptr %11, i64 %indvars.iv
  %38 = load ptr, ptr %37, align 8
  call void @llvm_emit_expr(ptr noundef %0, ptr noundef nonnull %7, ptr noundef %38) #8
  call void @llvm_value_rvalue(ptr noundef %0, ptr noundef nonnull %7) #8
  %39 = load ptr, ptr %35, align 8
  %40 = getelementptr inbounds ptr, ptr %8, i64 %indvars.iv
  store ptr %39, ptr %40, align 8
  %indvars.iv.next = add nuw nsw i64 %indvars.iv, 1
  %exitcond.not = icmp eq i64 %indvars.iv.next, %wide.trip.count
  br i1 %exitcond.not, label %._crit_edge.loopexit, label %36, !llvm.loop !7

._crit_edge.loopexit:                             ; preds = %36
  %.pre = load ptr, ptr %8, align 16
  %41 = call ptr @LLVMTypeOf(ptr noundef %.pre) #8
  store ptr %41, ptr %9, align 8
  %42 = call ptr @llvm_emit_call_intrinsic(ptr noundef %0, i32 noundef %.0, ptr noundef nonnull %9, i32 noundef 1, ptr noundef nonnull %8, i32 noundef %.035) #8
  %43 = load ptr, ptr %2, align 8
  call void @llvm_value_set(ptr noundef %1, ptr noundef %42, ptr noundef %43) #8
  ret void
}